target datalayout = "e-m:e-p270:32:32-p271:32:32-p272:64:64-i64:64-i128:128-f80:128-n8:16:32:64-S128"
target triple = "x86_64-pc-linux-gnu"

@.str.18 = private unnamed_addr constant [30 x i8] c"../openssl/test/threadstest.c\00", align 1
@.str.76 = private unnamed_addr constant [2 x i8] c"1\00", align 1
@.str.97 = private unnamed_addr constant [24 x i8] c"wait_for_thread(thread)\00", align 1
@.str.99 = private unnamed_addr constant [69 x i8] c"CRYPTO_THREAD_init_local(&thread_local_key, thread_local_destructor)\00", align 1
@thread_local_key = internal global i32 0, align 4
@.str.100 = private unnamed_addr constant [4 x i8] c"ptr\00", align 1
@.str.101 = private unnamed_addr constant [44 x i8] c"run_thread(&thread, thread_local_thread_cb)\00", align 1
@.str.102 = private unnamed_addr constant [26 x i8] c"thread_local_thread_cb_ok\00", align 1
@thread_local_thread_cb_ok = internal global i32 0, align 4
@.str.103 = private unnamed_addr constant [21 x i8] c"destructor_run_count\00", align 1
@destructor_run_count = internal global i32 0, align 4
@.str.104 = private unnamed_addr constant [47 x i8] c"CRYPTO_THREAD_cleanup_local(&thread_local_key)\00", align 1

; Function Attrs: nounwind uwtable
define internal i32 @wait_for_thread(i64 noundef %0) #0 {
  %2 = alloca i64, align 8
  store i64 %0, ptr %2, align 8, !tbaa !14
  %3 = load i64, ptr %2, align 8, !tbaa !14
  %4 = call i32 @pthread_join(i64 noundef %3, ptr noundef null)
  %5 = icmp eq i32 %4, 0
  %6 = zext i1 %5 to i32
  ret i32 %6
}

; Function Attrs: nounwind uwtable
define internal i32 @run_thread(ptr noundef %0, ptr noundef %1) #0 {
  %3 = alloca ptr, align 8
  %4 = alloca ptr, align 8
  store ptr %0, ptr %3, align 8, !tbaa !36
  store ptr %1, ptr %4, align 8, !tbaa !13
  %5 = load ptr, ptr %3, align 8, !tbaa !36
  %6 = load ptr, ptr %4, align 8, !tbaa !13
  %7 = call i32 @pthread_create(ptr noundef %5, ptr noundef null, ptr noundef @thread_run, ptr noundef %6) #10
  %8 = icmp eq i32 %7, 0
  %9 = zext i1 %8 to i32
  ret i32 %9
}

; Function Attrs: nounwind uwtable
define internal i32 @test_thread_local() #0 {
  %1 = alloca i32, align 4
  %2 = alloca i64, align 8
  %3 = alloca ptr, align 8
  %4 = alloca i32, align 4
  call void @llvm.lifetime.start.p0(i64 8, ptr %2) #10
  call void @llvm.lifetime.start.p0(i64 8, ptr %3) #10
  store ptr null, ptr %3, align 8, !tbaa !13
  %5 = call i32 @CRYPTO_THREAD_init_local(ptr noundef @thread_local_key, ptr noundef @thread_local_destructor)
  %6 = icmp ne i32 %5, 0
  %7 = zext i1 %6 to i32
  %8 = call i32 @test_true(ptr noundef @.str.18, i32 noundef 562, ptr noundef @.str.99, i32 noundef %7)
  %9 = icmp ne i32 %8, 0
  br i1 %9, label %11, label %10

10:                                               ; preds = %0
  store i32 0, ptr %1, align 4
  store i32 1, ptr %4, align 4
  br label %53

11:                                               ; preds = %0
  %12 = call ptr @CRYPTO_THREAD_get_local(ptr noundef @thread_local_key)
  store ptr %12, ptr %3, align 8, !tbaa !13
  %13 = load ptr, ptr %3, align 8, !tbaa !13
  %14 = call i32 @test_ptr_null(ptr noundef @.str.18, i32 noundef 566, ptr noundef @.str.100, ptr noundef %13)
  %15 = icmp ne i32 %14, 0
  br i1 %15, label %16, label %33

16:                                               ; preds = %11
  %17 = call i32 @run_thread(ptr noundef %2, ptr noundef @thread_local_thread_cb)
  %18 = icmp ne i32 %17, 0
  %19 = zext i1 %18 to i32
  %20 = call i32 @test_true(ptr noundef @.str.18, i32 noundef 567, ptr noundef @.str.101, i32 noundef %19)
  %21 = icmp ne i32 %20, 0
  br i1 %21, label %22, label %33

22:                                               ; preds = %16
  %23 = load i64, ptr %2, align 8, !tbaa !14
  %24 = call i32 @wait_for_thread(i64 noundef %23)
  %25 = icmp ne i32 %24, 0
  %26 = zext i1 %25 to i32
  %27 = call i32 @test_true(ptr noundef @.str.18, i32 noundef 568, ptr noundef @.str.97, i32 noundef %26)
  %28 = icmp ne i32 %27, 0
  br i1 %28, label %29, label %33

29:                                               ; preds = %22
  %30 = load i32, ptr @thread_local_thread_cb_ok, align 4, !tbaa !4
  %31 = call i32 @test_int_eq(ptr noundef @.str.18, i32 noundef 569, ptr noundef @.str.102, ptr noundef @.str.76, i32 noundef %30, i32 noundef 1)
  %32 = icmp ne i32 %31, 0
  br i1 %32, label %34, label %33

33:                                               ; preds = %29, %22, %16, %11
  store i32 0, ptr %1, align 4
  store i32 1, ptr %4, align 4
  br label %53

34:                                               ; preds = %29
  %35 = call ptr @CRYPTO_THREAD_get_local(ptr noundef @thread_local_key)
  store ptr %35, ptr %3, align 8, !tbaa !13
  %36 = load ptr, ptr %3, align 8, !tbaa !13
  %37 = call i32 @test_ptr_null(ptr noundef @.str.18, i32 noundef 575, ptr noundef @.str.100, ptr noundef %36)
  %38 = icmp ne i32 %37, 0
  br i1 %38, label %40, label %39

39:                                               ; preds = %34
  store i32 0, ptr %1, align 4
  store i32 1, ptr %4, align 4
  br label %53

40:                                               ; preds = %34
  %41 = load i32, ptr @destructor_run_count, align 4, !tbaa !4
  %42 = call i32 @test_int_eq(ptr noundef @.str.18, i32 noundef 579, ptr noundef @.str.103, ptr noundef @.str.76, i32 noundef %41, i32 noundef 1)
  %43 = icmp ne i32 %42, 0
  br i1 %43, label %45, label %44

44:                                               ; preds = %40
  store i32 0, ptr %1, align 4
  store i32 1, ptr %4, align 4
  br label %53

45:                                               ; preds = %40
  %46 = call i32 @CRYPTO_THREAD_cleanup_local(ptr noundef @thread_local_key)
  %47 = icmp ne i32 %46, 0
  %48 = zext i1 %47 to i32
  %49 = call i32 @test_true(ptr noundef @.str.18, i32 noundef 584, ptr noundef @.str.104, i32 noundef %48)
  %50 = icmp ne i32 %49, 0
  br i1 %50, label %52, label %51

51:                                               ; preds = %45
  store i32 0, ptr %1, align 4
  store i32 1, ptr %4, align 4
  br label %53

52:                                               ; preds = %45
  store i32 1, ptr %1, align 4
  store i32 1, ptr %4, align 4
  br label %53

53:                                               ; preds = %52, %51, %44, %39, %33, %10
  call void @llvm.lifetime.end.p0(i64 8, ptr %3) #10
  call void @llvm.lifetime.end.p0(i64 8, ptr %2) #10
  %54 = load i32, ptr %1, align 4
  ret i32 %54
}