; Function Attrs: nounwind uwtable
define internal range(i32 0, 2) i32 @test_thread_local() #1 {
  %1 = alloca i64, align 8
  call void @llvm.lifetime.start.p0(i64 8, ptr nonnull %1) #11
  %2 = tail call i32 @CRYPTO_THREAD_init_local(ptr noundef nonnull @thread_local_key, ptr noundef nonnull @thread_local_destructor) #11
  %3 = icmp ne i32 %2, 0
  %4 = zext i1 %3 to i32
  %5 = tail call i32 @test_true(ptr noundef nonnull @.str.18, i32 noundef 562, ptr noundef nonnull @.str.99, i32 noundef %4) #11
  %.not = icmp eq i32 %5, 0
  br i1 %.not, label %34, label %6

6:                                                ; preds = %0
  %7 = tail call ptr @CRYPTO_THREAD_get_local(ptr noundef nonnull @thread_local_key) #11
  %8 = tail call i32 @test_ptr_null(ptr noundef nonnull @.str.18, i32 noundef 566, ptr noundef nonnull @.str.100, ptr noundef %7) #11
  %.not2 = icmp eq i32 %8, 0
  br i1 %.not2, label %34, label %9

9:                                                ; preds = %6
  %10 = call i32 @pthread_create(ptr noundef nonnull %1, ptr noundef null, ptr noundef nonnull @thread_run, ptr noundef nonnull @thread_local_thread_cb) #11
  %11 = icmp eq i32 %10, 0
  %12 = zext i1 %11 to i32
  %13 = call i32 @test_true(ptr noundef nonnull @.str.18, i32 noundef 567, ptr noundef nonnull @.str.101, i32 noundef %12) #11
  %.not3 = icmp eq i32 %13, 0
  br i1 %.not3, label %34, label %14

14:                                               ; preds = %9
  %15 = load i64, ptr %1, align 8, !tbaa !12
  %16 = call i32 @pthread_join(i64 noundef %15, ptr noundef null) #11
  %17 = icmp eq i32 %16, 0
  %18 = zext i1 %17 to i32
  %19 = call i32 @test_true(ptr noundef nonnull @.str.18, i32 noundef 568, ptr noundef nonnull @.str.97, i32 noundef %18) #11
  %.not4 = icmp eq i32 %19, 0
  br i1 %.not4, label %34, label %20

20:                                               ; preds = %14
  %.b = load i1, ptr @thread_local_thread_cb_ok, align 4
  %21 = zext i1 %.b to i32
  %22 = call i32 @test_int_eq(ptr noundef nonnull @.str.18, i32 noundef 569, ptr noundef nonnull @.str.102, ptr noundef nonnull @.str.76, i32 noundef %21, i32 noundef 1) #11
  %.not5 = icmp eq i32 %22, 0
  br i1 %.not5, label %34, label %23

23:                                               ; preds = %20
  %24 = call ptr @CRYPTO_THREAD_get_local(ptr noundef nonnull @thread_local_key) #11
  %25 = call i32 @test_ptr_null(ptr noundef nonnull @.str.18, i32 noundef 575, ptr noundef nonnull @.str.100, ptr noundef %24) #11
  %.not6 = icmp eq i32 %25, 0
  br i1 %.not6, label %34, label %26

26:                                               ; preds = %23
  %27 = load i32, ptr @destructor_run_count, align 4, !tbaa !14
  %28 = call i32 @test_int_eq(ptr noundef nonnull @.str.18, i32 noundef 579, ptr noundef nonnull @.str.103, ptr noundef nonnull @.str.76, i32 noundef %27, i32 noundef 1) #11
  %.not7 = icmp eq i32 %28, 0
  br i1 %.not7, label %34, label %29

29:                                               ; preds = %26
  %30 = call i32 @CRYPTO_THREAD_cleanup_local(ptr noundef nonnull @thread_local_key) #11
  %31 = icmp ne i32 %30, 0
  %32 = zext i1 %31 to i32
  %33 = call i32 @test_true(ptr noundef nonnull @.str.18, i32 noundef 584, ptr noundef nonnull @.str.104, i32 noundef %32) #11
  %.not8 = icmp ne i32 %33, 0
  %. = zext i1 %.not8 to i32
  br label %34

34:                                               ; preds = %29, %26, %23, %6, %9, %14, %20, %0
  %.0 = phi i32 [ 0, %0 ], [ 0, %20 ], [ 0, %14 ], [ 0, %9 ], [ 0, %6 ], [ 0, %23 ], [ 0, %26 ], [ %., %29 ]
  call void @llvm.lifetime.end.p0(i64 8, ptr nonnull %1) #11
  ret i32 %.0
}